target datalayout = "e-m:e-p270:32:32-p271:32:32-p272:64:64-i64:64-i128:128-f80:128-n8:16:32:64-S128"
target triple = "x86_64-pc-linux-gnu"

%struct.AVFilterPad = type { ptr, i32, i32, %union.anon, ptr, ptr, ptr }
%union.anon = type { ptr }
%struct.AVFilterContext = type { ptr, ptr, ptr, ptr, ptr, i32, ptr, ptr, i32, ptr, ptr, i32, i32, ptr, ptr, ptr, ptr, i32, ptr, i32, i32 }
%struct.MaskedMergeContext = type { ptr, [4 x i32], [4 x i32], [4 x i32], i32, i32, i32, i32, i32, %struct.FFFrameSync, ptr }
%struct.FFFrameSync = type { ptr, ptr, i32, %struct.AVRational, i64, ptr, ptr, i32, i32, i8, i8, ptr, i32, i32, i32, i32 }
%struct.AVRational = type { i32, i32 }
%struct.AVFilterLink = type { ptr, ptr, ptr, ptr, i32, i32, i32, i32, %struct.AVRational, i32, i32, i32, %struct.AVChannelLayout, %struct.AVRational, ptr, i32, %struct.AVFilterFormatsConfig, %struct.AVFilterFormatsConfig }
%struct.AVChannelLayout = type { i32, i32, %union.anon.1, ptr }
%union.anon.1 = type { i64 }
%struct.AVFilterFormatsConfig = type { ptr, ptr, ptr, ptr, ptr }
%struct.FilterLink = type { %struct.AVFilterLink, ptr, i64, i64, i32, i32, i64, i64, i64, i64, %struct.AVRational, ptr }
%struct.FFFrameSyncIn = type { i32, i32, %struct.AVRational, ptr, ptr, i64, i64, i8, i8, i32, i32 }

@.str.6 = private unnamed_addr constant [172 x i8] c"First input link %s parameters (size %dx%d) do not match the corresponding second input link %s parameters (size %dx%d) and/or third input link %s parameters (size %dx%d)\0A\00", align 1

; Function Attrs: inlinehint nounwind uwtable
define internal ptr @ff_filter_link(ptr noundef %0) #6 {
  %2 = alloca ptr, align 8
  store ptr %0, ptr %2, align 8, !tbaa !24
  %3 = load ptr, ptr %2, align 8, !tbaa !24
  ret ptr %3
}

; Function Attrs: nounwind uwtable
define internal i32 @config_output(ptr noundef %0) #2 {
  %2 = alloca i32, align 4
  %3 = alloca ptr, align 8
  %4 = alloca ptr, align 8
  %5 = alloca ptr, align 8
  %6 = alloca ptr, align 8
  %7 = alloca ptr, align 8
  %8 = alloca ptr, align 8
  %9 = alloca ptr, align 8
  %10 = alloca ptr, align 8
  %11 = alloca ptr, align 8
  %12 = alloca i32, align 4
  %13 = alloca i32, align 4
  store ptr %0, ptr %3, align 8, !tbaa !24
  call void @llvm.lifetime.start.p0(i64 8, ptr %4) #10
  %14 = load ptr, ptr %3, align 8, !tbaa !24
  %15 = getelementptr inbounds nuw %struct.AVFilterLink, ptr %14, i32 0, i32 0
  %16 = load ptr, ptr %15, align 8, !tbaa !72
  store ptr %16, ptr %4, align 8, !tbaa !4
  call void @llvm.lifetime.start.p0(i64 8, ptr %5) #10
  %17 = load ptr, ptr %4, align 8, !tbaa !4
  %18 = getelementptr inbounds nuw %struct.AVFilterContext, ptr %17, i32 0, i32 9
  %19 = load ptr, ptr %18, align 8, !tbaa !9
  store ptr %19, ptr %5, align 8, !tbaa !22
  call void @llvm.lifetime.start.p0(i64 8, ptr %6) #10
  %20 = load ptr, ptr %4, align 8, !tbaa !4
  %21 = getelementptr inbounds nuw %struct.AVFilterContext, ptr %20, i32 0, i32 4
  %22 = load ptr, ptr %21, align 8, !tbaa !73
  %23 = getelementptr inbounds ptr, ptr %22, i64 0
  %24 = load ptr, ptr %23, align 8, !tbaa !24
  store ptr %24, ptr %6, align 8, !tbaa !24
  call void @llvm.lifetime.start.p0(i64 8, ptr %7) #10
  %25 = load ptr, ptr %4, align 8, !tbaa !4
  %26 = getelementptr inbounds nuw %struct.AVFilterContext, ptr %25, i32 0, i32 4
  %27 = load ptr, ptr %26, align 8, !tbaa !73
  %28 = getelementptr inbounds ptr, ptr %27, i64 1
  %29 = load ptr, ptr %28, align 8, !tbaa !24
  store ptr %29, ptr %7, align 8, !tbaa !24
  call void @llvm.lifetime.start.p0(i64 8, ptr %8) #10
  %30 = load ptr, ptr %4, align 8, !tbaa !4
  %31 = getelementptr inbounds nuw %struct.AVFilterContext, ptr %30, i32 0, i32 4
  %32 = load ptr, ptr %31, align 8, !tbaa !73
  %33 = getelementptr inbounds ptr, ptr %32, i64 2
  %34 = load ptr, ptr %33, align 8, !tbaa !24
  store ptr %34, ptr %8, align 8, !tbaa !24
  call void @llvm.lifetime.start.p0(i64 8, ptr %9) #10
  %35 = load ptr, ptr %6, align 8, !tbaa !24
  %36 = call ptr @ff_filter_link(ptr noundef %35)
  store ptr %36, ptr %9, align 8, !tbaa !74
  call void @llvm.lifetime.start.p0(i64 8, ptr %10) #10
  %37 = load ptr, ptr %3, align 8, !tbaa !24
  %38 = call ptr @ff_filter_link(ptr noundef %37)
  store ptr %38, ptr %10, align 8, !tbaa !74
  call void @llvm.lifetime.start.p0(i64 8, ptr %11) #10
  call void @llvm.lifetime.start.p0(i64 4, ptr %12) #10
  %39 = load ptr, ptr %6, align 8, !tbaa !24
  %40 = getelementptr inbounds nuw %struct.AVFilterLink, ptr %39, i32 0, i32 6
  %41 = load i32, ptr %40, align 8, !tbaa !47
  %42 = load ptr, ptr %7, align 8, !tbaa !24
  %43 = getelementptr inbounds nuw %struct.AVFilterLink, ptr %42, i32 0, i32 6
  %44 = load i32, ptr %43, align 8, !tbaa !47
  %45 = icmp ne i32 %41, %44
  br i1 %45, label %70, label %46

46:                                               ; preds = %1
  %47 = load ptr, ptr %6, align 8, !tbaa !24
  %48 = getelementptr inbounds nuw %struct.AVFilterLink, ptr %47, i32 0, i32 7
  %49 = load i32, ptr %48, align 4, !tbaa !46
  %50 = load ptr, ptr %7, align 8, !tbaa !24
  %51 = getelementptr inbounds nuw %struct.AVFilterLink, ptr %50, i32 0, i32 7
  %52 = load i32, ptr %51, align 4, !tbaa !46
  %53 = icmp ne i32 %49, %52
  br i1 %53, label %70, label %54

54:                                               ; preds = %46
  %55 = load ptr, ptr %6, align 8, !tbaa !24
  %56 = getelementptr inbounds nuw %struct.AVFilterLink, ptr %55, i32 0, i32 6
  %57 = load i32, ptr %56, align 8, !tbaa !47
  %58 = load ptr, ptr %8, align 8, !tbaa !24
  %59 = getelementptr inbounds nuw %struct.AVFilterLink, ptr %58, i32 0, i32 6
  %60 = load i32, ptr %59, align 8, !tbaa !47
  %61 = icmp ne i32 %57, %60
  br i1 %61, label %70, label %62

62:                                               ; preds = %54
  %63 = load ptr, ptr %6, align 8, !tbaa !24
  %64 = getelementptr inbounds nuw %struct.AVFilterLink, ptr %63, i32 0, i32 7
  %65 = load i32, ptr %64, align 4, !tbaa !46
  %66 = load ptr, ptr %8, align 8, !tbaa !24
  %67 = getelementptr inbounds nuw %struct.AVFilterLink, ptr %66, i32 0, i32 7
  %68 = load i32, ptr %67, align 4, !tbaa !46
  %69 = icmp ne i32 %65, %68
  br i1 %69, label %70, label %108

70:                                               ; preds = %62, %54, %46, %1
  %71 = load ptr, ptr %4, align 8, !tbaa !4
  %72 = load ptr, ptr %4, align 8, !tbaa !4
  %73 = getelementptr inbounds nuw %struct.AVFilterContext, ptr %72, i32 0, i32 3
  %74 = load ptr, ptr %73, align 8, !tbaa !76
  %75 = getelementptr inbounds %struct.AVFilterPad, ptr %74, i64 0
  %76 = getelementptr inbounds nuw %struct.AVFilterPad, ptr %75, i32 0, i32 0
  %77 = load ptr, ptr %76, align 8, !tbaa !77
  %78 = load ptr, ptr %6, align 8, !tbaa !24
  %79 = getelementptr inbounds nuw %struct.AVFilterLink, ptr %78, i32 0, i32 6
  %80 = load i32, ptr %79, align 8, !tbaa !47
  %81 = load ptr, ptr %6, align 8, !tbaa !24
  %82 = getelementptr inbounds nuw %struct.AVFilterLink, ptr %81, i32 0, i32 7
  %83 = load i32, ptr %82, align 4, !tbaa !46
  %84 = load ptr, ptr %4, align 8, !tbaa !4
  %85 = getelementptr inbounds nuw %struct.AVFilterContext, ptr %84, i32 0, i32 3
  %86 = load ptr, ptr %85, align 8, !tbaa !76
  %87 = getelementptr inbounds %struct.AVFilterPad, ptr %86, i64 1
  %88 = getelementptr inbounds nuw %struct.AVFilterPad, ptr %87, i32 0, i32 0
  %89 = load ptr, ptr %88, align 8, !tbaa !77
  %90 = load ptr, ptr %7, align 8, !tbaa !24
  %91 = getelementptr inbounds nuw %struct.AVFilterLink, ptr %90, i32 0, i32 6
  %92 = load i32, ptr %91, align 8, !tbaa !47
  %93 = load ptr, ptr %7, align 8, !tbaa !24
  %94 = getelementptr inbounds nuw %struct.AVFilterLink, ptr %93, i32 0, i32 7
  %95 = load i32, ptr %94, align 4, !tbaa !46
  %96 = load ptr, ptr %4, align 8, !tbaa !4
  %97 = getelementptr inbounds nuw %struct.AVFilterContext, ptr %96, i32 0, i32 3
  %98 = load ptr, ptr %97, align 8, !tbaa !76
  %99 = getelementptr inbounds %struct.AVFilterPad, ptr %98, i64 2
  %100 = getelementptr inbounds nuw %struct.AVFilterPad, ptr %99, i32 0, i32 0
  %101 = load ptr, ptr %100, align 8, !tbaa !77
  %102 = load ptr, ptr %8, align 8, !tbaa !24
  %103 = getelementptr inbounds nuw %struct.AVFilterLink, ptr %102, i32 0, i32 6
  %104 = load i32, ptr %103, align 8, !tbaa !47
  %105 = load ptr, ptr %8, align 8, !tbaa !24
  %106 = getelementptr inbounds nuw %struct.AVFilterLink, ptr %105, i32 0, i32 7
  %107 = load i32, ptr %106, align 4, !tbaa !46
  call void (ptr, i32, ptr, ...) @av_log(ptr noundef %71, i32 noundef 16, ptr noundef @.str.6, ptr noundef %77, i32 noundef %80, i32 noundef %83, ptr noundef %89, i32 noundef %92, i32 noundef %95, ptr noundef %101, i32 noundef %104, i32 noundef %107)
  store i32 -22, ptr %2, align 4
  store i32 1, ptr %13, align 4
  br label %211

108:                                              ; preds = %62
  %109 = load ptr, ptr %6, align 8, !tbaa !24
  %110 = getelementptr inbounds nuw %struct.AVFilterLink, ptr %109, i32 0, i32 6
  %111 = load i32, ptr %110, align 8, !tbaa !47
  %112 = load ptr, ptr %3, align 8, !tbaa !24
  %113 = getelementptr inbounds nuw %struct.AVFilterLink, ptr %112, i32 0, i32 6
  store i32 %111, ptr %113, align 8, !tbaa !47
  %114 = load ptr, ptr %6, align 8, !tbaa !24
  %115 = getelementptr inbounds nuw %struct.AVFilterLink, ptr %114, i32 0, i32 7
  %116 = load i32, ptr %115, align 4, !tbaa !46
  %117 = load ptr, ptr %3, align 8, !tbaa !24
  %118 = getelementptr inbounds nuw %struct.AVFilterLink, ptr %117, i32 0, i32 7
  store i32 %116, ptr %118, align 4, !tbaa !46
  %119 = load ptr, ptr %3, align 8, !tbaa !24
  %120 = getelementptr inbounds nuw %struct.AVFilterLink, ptr %119, i32 0, i32 8
  %121 = load ptr, ptr %6, align 8, !tbaa !24
  %122 = getelementptr inbounds nuw %struct.AVFilterLink, ptr %121, i32 0, i32 8
  call void @llvm.memcpy.p0.p0.i64(ptr align 8 %120, ptr align 8 %122, i64 8, i1 false), !tbaa.struct !79
  %123 = load ptr, ptr %10, align 8, !tbaa !74
  %124 = getelementptr inbounds nuw %struct.FilterLink, ptr %123, i32 0, i32 10
  %125 = load ptr, ptr %9, align 8, !tbaa !74
  %126 = getelementptr inbounds nuw %struct.FilterLink, ptr %125, i32 0, i32 10
  call void @llvm.memcpy.p0.p0.i64(ptr align 8 %124, ptr align 8 %126, i64 8, i1 false), !tbaa.struct !79
  %127 = load ptr, ptr %5, align 8, !tbaa !22
  %128 = getelementptr inbounds nuw %struct.MaskedMergeContext, ptr %127, i32 0, i32 3
  %129 = getelementptr inbounds [4 x i32], ptr %128, i64 0, i64 0
  %130 = load ptr, ptr %3, align 8, !tbaa !24
  %131 = getelementptr inbounds nuw %struct.AVFilterLink, ptr %130, i32 0, i32 5
  %132 = load i32, ptr %131, align 4, !tbaa !34
  %133 = load ptr, ptr %3, align 8, !tbaa !24
  %134 = getelementptr inbounds nuw %struct.AVFilterLink, ptr %133, i32 0, i32 6
  %135 = load i32, ptr %134, align 8, !tbaa !47
  %136 = call i32 @av_image_fill_linesizes(ptr noundef %129, i32 noundef %132, i32 noundef %135)
  store i32 %136, ptr %12, align 4, !tbaa !44
  %137 = icmp slt i32 %136, 0
  br i1 %137, label %138, label %140

138:                                              ; preds = %108
  %139 = load i32, ptr %12, align 4, !tbaa !44
  store i32 %139, ptr %2, align 4
  store i32 1, ptr %13, align 4
  br label %211

140:                                              ; preds = %108
  %141 = load ptr, ptr %5, align 8, !tbaa !22
  %142 = getelementptr inbounds nuw %struct.MaskedMergeContext, ptr %141, i32 0, i32 9
  %143 = load ptr, ptr %4, align 8, !tbaa !4
  %144 = call i32 @ff_framesync_init(ptr noundef %142, ptr noundef %143, i32 noundef 3)
  store i32 %144, ptr %12, align 4, !tbaa !44
  %145 = icmp slt i32 %144, 0
  br i1 %145, label %146, label %148

146:                                              ; preds = %140
  %147 = load i32, ptr %12, align 4, !tbaa !44
  store i32 %147, ptr %2, align 4
  store i32 1, ptr %13, align 4
  br label %211

148:                                              ; preds = %140
  %149 = load ptr, ptr %5, align 8, !tbaa !22
  %150 = getelementptr inbounds nuw %struct.MaskedMergeContext, ptr %149, i32 0, i32 9
  %151 = getelementptr inbounds nuw %struct.FFFrameSync, ptr %150, i32 0, i32 11
  %152 = load ptr, ptr %151, align 8, !tbaa !80
  store ptr %152, ptr %11, align 8, !tbaa !81
  %153 = load ptr, ptr %11, align 8, !tbaa !81
  %154 = getelementptr inbounds %struct.FFFrameSyncIn, ptr %153, i64 0
  %155 = getelementptr inbounds nuw %struct.FFFrameSyncIn, ptr %154, i32 0, i32 2
  %156 = load ptr, ptr %6, align 8, !tbaa !24
  %157 = getelementptr inbounds nuw %struct.AVFilterLink, ptr %156, i32 0, i32 13
  call void @llvm.memcpy.p0.p0.i64(ptr align 8 %155, ptr align 8 %157, i64 8, i1 false), !tbaa.struct !79
  %158 = load ptr, ptr %11, align 8, !tbaa !81
  %159 = getelementptr inbounds %struct.FFFrameSyncIn, ptr %158, i64 1
  %160 = getelementptr inbounds nuw %struct.FFFrameSyncIn, ptr %159, i32 0, i32 2
  %161 = load ptr, ptr %7, align 8, !tbaa !24
  %162 = getelementptr inbounds nuw %struct.AVFilterLink, ptr %161, i32 0, i32 13
  call void @llvm.memcpy.p0.p0.i64(ptr align 8 %160, ptr align 8 %162, i64 8, i1 false), !tbaa.struct !79
  %163 = load ptr, ptr %11, align 8, !tbaa !81
  %164 = getelementptr inbounds %struct.FFFrameSyncIn, ptr %163, i64 2
  %165 = getelementptr inbounds nuw %struct.FFFrameSyncIn, ptr %164, i32 0, i32 2
  %166 = load ptr, ptr %8, align 8, !tbaa !24
  %167 = getelementptr inbounds nuw %struct.AVFilterLink, ptr %166, i32 0, i32 13
  call void @llvm.memcpy.p0.p0.i64(ptr align 8 %165, ptr align 8 %167, i64 8, i1 false), !tbaa.struct !79
  %168 = load ptr, ptr %11, align 8, !tbaa !81
  %169 = getelementptr inbounds %struct.FFFrameSyncIn, ptr %168, i64 0
  %170 = getelementptr inbounds nuw %struct.FFFrameSyncIn, ptr %169, i32 0, i32 9
  store i32 1, ptr %170, align 4, !tbaa !82
  %171 = load ptr, ptr %11, align 8, !tbaa !81
  %172 = getelementptr inbounds %struct.FFFrameSyncIn, ptr %171, i64 0
  %173 = getelementptr inbounds nuw %struct.FFFrameSyncIn, ptr %172, i32 0, i32 0
  store i32 0, ptr %173, align 8, !tbaa !85
  %174 = load ptr, ptr %11, align 8, !tbaa !81
  %175 = getelementptr inbounds %struct.FFFrameSyncIn, ptr %174, i64 0
  %176 = getelementptr inbounds nuw %struct.FFFrameSyncIn, ptr %175, i32 0, i32 1
  store i32 2, ptr %176, align 4, !tbaa !86
  %177 = load ptr, ptr %11, align 8, !tbaa !81
  %178 = getelementptr inbounds %struct.FFFrameSyncIn, ptr %177, i64 1
  %179 = getelementptr inbounds nuw %struct.FFFrameSyncIn, ptr %178, i32 0, i32 9
  store i32 1, ptr %179, align 4, !tbaa !82
  %180 = load ptr, ptr %11, align 8, !tbaa !81
  %181 = getelementptr inbounds %struct.FFFrameSyncIn, ptr %180, i64 1
  %182 = getelementptr inbounds nuw %struct.FFFrameSyncIn, ptr %181, i32 0, i32 0
  store i32 0, ptr %182, align 8, !tbaa !85
  %183 = load ptr, ptr %11, align 8, !tbaa !81
  %184 = getelementptr inbounds %struct.FFFrameSyncIn, ptr %183, i64 1
  %185 = getelementptr inbounds nuw %struct.FFFrameSyncIn, ptr %184, i32 0, i32 1
  store i32 2, ptr %185, align 4, !tbaa !86
  %186 = load ptr, ptr %11, align 8, !tbaa !81
  %187 = getelementptr inbounds %struct.FFFrameSyncIn, ptr %186, i64 2
  %188 = getelementptr inbounds nuw %struct.FFFrameSyncIn, ptr %187, i32 0, i32 9
  store i32 1, ptr %188, align 4, !tbaa !82
  %189 = load ptr, ptr %11, align 8, !tbaa !81
  %190 = getelementptr inbounds %struct.FFFrameSyncIn, ptr %189, i64 2
  %191 = getelementptr inbounds nuw %struct.FFFrameSyncIn, ptr %190, i32 0, i32 0
  store i32 0, ptr %191, align 8, !tbaa !85
  %192 = load ptr, ptr %11, align 8, !tbaa !81
  %193 = getelementptr inbounds %struct.FFFrameSyncIn, ptr %192, i64 2
  %194 = getelementptr inbounds nuw %struct.FFFrameSyncIn, ptr %193, i32 0, i32 1
  store i32 2, ptr %194, align 4, !tbaa !86
  %195 = load ptr, ptr %5, align 8, !tbaa !22
  %196 = load ptr, ptr %5, align 8, !tbaa !22
  %197 = getelementptr inbounds nuw %struct.MaskedMergeContext, ptr %196, i32 0, i32 9
  %198 = getelementptr inbounds nuw %struct.FFFrameSync, ptr %197, i32 0, i32 6
  store ptr %195, ptr %198, align 8, !tbaa !87
  %199 = load ptr, ptr %5, align 8, !tbaa !22
  %200 = getelementptr inbounds nuw %struct.MaskedMergeContext, ptr %199, i32 0, i32 9
  %201 = getelementptr inbounds nuw %struct.FFFrameSync, ptr %200, i32 0, i32 5
  store ptr @process_frame, ptr %201, align 8, !tbaa !88
  %202 = load ptr, ptr %5, align 8, !tbaa !22
  %203 = getelementptr inbounds nuw %struct.MaskedMergeContext, ptr %202, i32 0, i32 9
  %204 = call i32 @ff_framesync_configure(ptr noundef %203)
  store i32 %204, ptr %12, align 4, !tbaa !44
  %205 = load ptr, ptr %3, align 8, !tbaa !24
  %206 = getelementptr inbounds nuw %struct.AVFilterLink, ptr %205, i32 0, i32 13
  %207 = load ptr, ptr %5, align 8, !tbaa !22
  %208 = getelementptr inbounds nuw %struct.MaskedMergeContext, ptr %207, i32 0, i32 9
  %209 = getelementptr inbounds nuw %struct.FFFrameSync, ptr %208, i32 0, i32 3
  call void @llvm.memcpy.p0.p0.i64(ptr align 8 %206, ptr align 4 %209, i64 8, i1 false), !tbaa.struct !79
  %210 = load i32, ptr %12, align 4, !tbaa !44
  store i32 %210, ptr %2, align 4
  store i32 1, ptr %13, align 4
  br label %211

211:                                              ; preds = %148, %146, %138, %70
  call void @llvm.lifetime.end.p0(i64 4, ptr %12) #10
  call void @llvm.lifetime.end.p0(i64 8, ptr %11) #10
  call void @llvm.lifetime.end.p0(i64 8, ptr %10) #10
  call void @llvm.lifetime.end.p0(i64 8, ptr %9) #10
  call void @llvm.lifetime.end.p0(i64 8, ptr %8) #10
  call void @llvm.lifetime.end.p0(i64 8, ptr %7) #10
  call void @llvm.lifetime.end.p0(i64 8, ptr %6) #10
  call void @llvm.lifetime.end.p0(i64 8, ptr %5) #10
  call void @llvm.lifetime.end.p0(i64 8, ptr %4) #10
  %212 = load i32, ptr %2, align 4
  ret i32 %212
}