; Function Attrs: nounwind uwtable
define internal i32 @config_output(ptr noundef captures(none) %0) #2 {
  %2 = load ptr, ptr %0, align 8, !tbaa !59
  %3 = getelementptr inbounds nuw i8, ptr %2, i64 72
  %4 = load ptr, ptr %3, align 8, !tbaa !4
  %5 = getelementptr inbounds nuw i8, ptr %2, i64 32
  %6 = load ptr, ptr %5, align 8, !tbaa !60
  %7 = load ptr, ptr %6, align 8, !tbaa !61
  %8 = getelementptr inbounds nuw i8, ptr %6, i64 8
  %9 = load ptr, ptr %8, align 8, !tbaa !61
  %10 = getelementptr inbounds nuw i8, ptr %6, i64 16
  %11 = load ptr, ptr %10, align 8, !tbaa !61
  %12 = getelementptr inbounds nuw i8, ptr %7, i64 40
  %13 = load i32, ptr %12, align 8, !tbaa !40
  %14 = getelementptr inbounds nuw i8, ptr %9, i64 40
  %15 = load i32, ptr %14, align 8, !tbaa !40
  %.not = icmp eq i32 %13, %15
  %16 = getelementptr inbounds nuw i8, ptr %7, i64 44
  %17 = load i32, ptr %16, align 4, !tbaa !37
  %18 = getelementptr inbounds nuw i8, ptr %9, i64 44
  %19 = load i32, ptr %18, align 4, !tbaa !37
  %.not67 = icmp eq i32 %17, %19
  %or.cond = select i1 %.not, i1 %.not67, i1 false
  br i1 %or.cond, label %20, label %._crit_edge

20:                                               ; preds = %1
  %21 = getelementptr inbounds nuw i8, ptr %11, i64 40
  %22 = load i32, ptr %21, align 8, !tbaa !40
  %.not68 = icmp eq i32 %13, %22
  br i1 %.not68, label %23, label %._crit_edge

23:                                               ; preds = %20
  %24 = getelementptr inbounds nuw i8, ptr %11, i64 44
  %25 = load i32, ptr %24, align 4, !tbaa !37
  %.not69 = icmp eq i32 %17, %25
  br i1 %.not69, label %38, label %._crit_edge

._crit_edge:                                      ; preds = %1, %23, %20
  %26 = phi i32 [ %17, %23 ], [ %17, %20 ], [ %19, %1 ]
  %27 = getelementptr inbounds nuw i8, ptr %2, i64 24
  %28 = load ptr, ptr %27, align 8, !tbaa !63
  %29 = load ptr, ptr %28, align 8, !tbaa !64
  %30 = getelementptr inbounds nuw i8, ptr %28, i64 48
  %31 = load ptr, ptr %30, align 8, !tbaa !64
  %32 = getelementptr inbounds nuw i8, ptr %28, i64 96
  %33 = load ptr, ptr %32, align 8, !tbaa !64
  %34 = getelementptr inbounds nuw i8, ptr %11, i64 40
  %35 = load i32, ptr %34, align 8, !tbaa !40
  %36 = getelementptr inbounds nuw i8, ptr %11, i64 44
  %37 = load i32, ptr %36, align 4, !tbaa !37
  tail call void (ptr, i32, ptr, ...) @av_log(ptr noundef nonnull %2, i32 noundef 16, ptr noundef nonnull @.str.6, ptr noundef %29, i32 noundef %13, i32 noundef %17, ptr noundef %31, i32 noundef %15, i32 noundef %26, ptr noundef %33, i32 noundef %35, i32 noundef %37) #9
  br label %82

38:                                               ; preds = %23
  %39 = getelementptr inbounds nuw i8, ptr %0, i64 40
  store i32 %13, ptr %39, align 8, !tbaa !40
  %40 = getelementptr inbounds nuw i8, ptr %0, i64 44
  store i32 %17, ptr %40, align 4, !tbaa !37
  %41 = getelementptr inbounds nuw i8, ptr %0, i64 48
  %42 = getelementptr inbounds nuw i8, ptr %7, i64 48
  %43 = load i64, ptr %42, align 8
  store i64 %43, ptr %41, align 8
  %44 = getelementptr inbounds nuw i8, ptr %0, i64 264
  %45 = getelementptr inbounds nuw i8, ptr %7, i64 264
  %46 = load i64, ptr %45, align 8
  store i64 %46, ptr %44, align 8
  %47 = getelementptr inbounds nuw i8, ptr %4, i64 40
  %48 = getelementptr inbounds nuw i8, ptr %0, i64 36
  %49 = load i32, ptr %48, align 4, !tbaa !29
  %50 = tail call i32 @av_image_fill_linesizes(ptr noundef nonnull %47, i32 noundef %49, i32 noundef %13) #9
  %51 = icmp slt i32 %50, 0
  br i1 %51, label %82, label %52

52:                                               ; preds = %38
  %53 = getelementptr inbounds nuw i8, ptr %4, i64 80
  %54 = tail call i32 @ff_framesync_init(ptr noundef nonnull %53, ptr noundef nonnull %2, i32 noundef 3) #9
  %55 = icmp slt i32 %54, 0
  br i1 %55, label %82, label %56

56:                                               ; preds = %52
  %57 = getelementptr inbounds nuw i8, ptr %4, i64 152
  %58 = load ptr, ptr %57, align 8, !tbaa !66
  %59 = getelementptr inbounds nuw i8, ptr %58, i64 8
  %60 = getelementptr inbounds nuw i8, ptr %7, i64 96
  %61 = load i64, ptr %60, align 8
  store i64 %61, ptr %59, align 8
  %62 = getelementptr inbounds nuw i8, ptr %58, i64 64
  %63 = getelementptr inbounds nuw i8, ptr %58, i64 72
  %64 = getelementptr inbounds nuw i8, ptr %9, i64 96
  %65 = load i64, ptr %64, align 8
  store i64 %65, ptr %63, align 8
  %66 = getelementptr inbounds nuw i8, ptr %58, i64 128
  %67 = getelementptr inbounds nuw i8, ptr %58, i64 136
  %68 = getelementptr inbounds nuw i8, ptr %11, i64 96
  %69 = load i64, ptr %68, align 8
  store i64 %69, ptr %67, align 8
  %70 = getelementptr inbounds nuw i8, ptr %58, i64 52
  store i32 1, ptr %70, align 4, !tbaa !67
  store i32 0, ptr %58, align 8, !tbaa !70
  %71 = getelementptr inbounds nuw i8, ptr %58, i64 4
  store i32 2, ptr %71, align 4, !tbaa !71
  %72 = getelementptr inbounds nuw i8, ptr %58, i64 116
  store i32 1, ptr %72, align 4, !tbaa !67
  store i32 0, ptr %62, align 8, !tbaa !70
  %73 = getelementptr inbounds nuw i8, ptr %58, i64 68
  store i32 2, ptr %73, align 4, !tbaa !71
  %74 = getelementptr inbounds nuw i8, ptr %58, i64 180
  store i32 1, ptr %74, align 4, !tbaa !67
  store i32 0, ptr %66, align 8, !tbaa !70
  %75 = getelementptr inbounds nuw i8, ptr %58, i64 132
  store i32 2, ptr %75, align 4, !tbaa !71
  %76 = getelementptr inbounds nuw i8, ptr %4, i64 128
  store ptr %4, ptr %76, align 8, !tbaa !72
  %77 = getelementptr inbounds nuw i8, ptr %4, i64 120
  store ptr @process_frame, ptr %77, align 8, !tbaa !73
  %78 = tail call i32 @ff_framesync_configure(ptr noundef nonnull %53) #9
  %79 = getelementptr inbounds nuw i8, ptr %0, i64 96
  %80 = getelementptr inbounds nuw i8, ptr %4, i64 100
  %81 = load i64, ptr %80, align 4
  store i64 %81, ptr %79, align 8
  br label %82

82:                                               ; preds = %52, %38, %56, %._crit_edge
  %.0 = phi i32 [ -22, %._crit_edge ], [ %78, %56 ], [ %50, %38 ], [ %54, %52 ]
  ret i32 %.0
}